target datalayout = "e-m:e-p270:32:32-p271:32:32-p272:64:64-i64:64-i128:128-f80:128-n8:16:32:64-S128"
target triple = "x86_64-unknown-linux-gnu"

; Function Attrs: mustprogress nounwind uwtable
define linkonce_odr noundef double @_ZNSt14numeric_limitsIdE9quiet_NaNEv() #0 comdat align 2 {
entry:
  ret double 0x7FF8000000000000
}

; Function Attrs: mustprogress nounwind uwtable
define linkonce_odr noundef zeroext i1 @_ZSt8isfinited(double noundef %__x) #0 comdat {
entry:
  %__x.addr = alloca double, align 8
  store double %__x, ptr %__x.addr, align 8
  %0 = load double, ptr %__x.addr, align 8
  %1 = call i1 @llvm.is.fpclass.f64(double %0, i32 504)
  ret i1 %1
}

; Function Attrs: mustprogress nounwind uwtable
define hidden noundef double @_ZN6hermes2vm8makeDateEdd(double noundef %day, double noundef %t) #0 {
entry:
  %retval = alloca double, align 8
  %day.addr = alloca double, align 8
  %t.addr = alloca double, align 8
  %dayMs = alloca double, align 8
  store double %day, ptr %day.addr, align 8
  store double %t, ptr %t.addr, align 8
  %0 = load double, ptr %day.addr, align 8
  %call = call noundef zeroext i1 @_ZSt8isfinited(double noundef %0)
  br i1 %call, label %lor.lhs.false, label %if.then

lor.lhs.false:                                    ; preds = %entry
  %1 = load double, ptr %t.addr, align 8
  %call1 = call noundef zeroext i1 @_ZSt8isfinited(double noundef %1)
  br i1 %call1, label %if.end, label %if.then

if.then:                                          ; preds = %lor.lhs.false, %entry
  %call2 = call noundef double @_ZNSt14numeric_limitsIdE9quiet_NaNEv() #7
  store double %call2, ptr %retval, align 8
  br label %return

if.end:                                           ; preds = %lor.lhs.false
  %2 = load double, ptr %day.addr, align 8
  %mul = fmul double %2, 8.640000e+07
  store double %mul, ptr %dayMs, align 8
  %3 = load double, ptr %dayMs, align 8
  %4 = load double, ptr %t.addr, align 8
  %add = fadd double %3, %4
  store double %add, ptr %retval, align 8
  br label %return

return:                                           ; preds = %if.end, %if.then
  %5 = load double, ptr %retval, align 8
  ret double %5
}