; Function Attrs: mustprogress nofree norecurse nosync nounwind willreturn memory(none) uwtable
define hidden noundef double @_ZN6hermes2vm8makeDateEdd(double noundef %day, double noundef %t) local_unnamed_addr #2 {
entry:
  %0 = tail call double @llvm.fabs.f64(double %day)
  %1 = fcmp one double %0, 0x7FF0000000000000
  %2 = tail call double @llvm.fabs.f64(double %t)
  %3 = fcmp one double %2, 0x7FF0000000000000
  %or.cond = and i1 %1, %3
  %mul = fmul double %day, 8.640000e+07
  %add = fadd double %mul, %t
  %retval.0 = select i1 %or.cond, double %add, double 0x7FF8000000000000
  ret double %retval.0
}